; Function Attrs: norecurse nounwind uwtable
define internal void @_ZN8LightGBM2RF8BoostingEv.omp_outlined(ptr noalias nocapture noundef readonly %0, ptr noalias nocapture readnone %1, ptr nocapture noundef readonly %2, ptr nocapture noundef nonnull readonly align 8 dereferenceable(24) %3) #14 {
  %5 = alloca i32, align 4
  %6 = alloca i32, align 4
  %7 = alloca i32, align 4
  %8 = alloca i32, align 4
  %9 = getelementptr inbounds i8, ptr %2, i64 360
  %10 = load i32, ptr %9, align 8
  %11 = icmp sgt i32 %10, 0
  br i1 %11, label %12, label %38

12:                                               ; preds = %4
  %13 = add nsw i32 %10, -1
  store i32 0, ptr %5, align 4
  store i32 %13, ptr %6, align 4
  store i32 1, ptr %7, align 4
  store i32 0, ptr %8, align 4
  %14 = load i32, ptr %0, align 4
  call void @__kmpc_for_static_init_4(ptr nonnull @1, i32 %14, i32 34, ptr nonnull %8, ptr nonnull %5, ptr nonnull %6, ptr nonnull %7, i32 1, i32 1)
  %15 = load i32, ptr %6, align 4
  %16 = call i32 @llvm.smin.i32(i32 %15, i32 %13)
  store i32 %16, ptr %6, align 4
  %17 = load i32, ptr %5, align 4
  %.not19 = icmp sgt i32 %17, %16
  br i1 %.not19, label %._crit_edge23, label %.lr.ph22

.lr.ph22:                                         ; preds = %12
  %18 = getelementptr inbounds i8, ptr %2, i64 356
  %19 = getelementptr inbounds i8, ptr %2, i64 648
  %20 = load i32, ptr %18, align 4
  %21 = icmp sgt i32 %20, 0
  br i1 %21, label %.lr.ph22.split.preheader, label %._crit_edge23

.lr.ph22.split.preheader:                         ; preds = %.lr.ph22
  %22 = sext i32 %17 to i64
  %23 = add nsw i32 %16, 1
  br label %.lr.ph22.split

.lr.ph22.split:                                   ; preds = %.lr.ph22.split.preheader, %._crit_edge
  %24 = phi i32 [ %20, %.lr.ph22.split.preheader ], [ %37, %._crit_edge ]
  %indvars.iv26 = phi i64 [ %22, %.lr.ph22.split.preheader ], [ %indvars.iv.next27, %._crit_edge ]
  %25 = sext i32 %24 to i64
  %26 = mul nsw i64 %indvars.iv26, %25
  %27 = icmp sgt i32 %24, 0
  br i1 %27, label %.lr.ph, label %._crit_edge

.lr.ph:                                           ; preds = %.lr.ph22.split, %.lr.ph
  %indvars.iv = phi i64 [ %indvars.iv.next, %.lr.ph ], [ 0, %.lr.ph22.split ]
  %28 = load ptr, ptr %19, align 8
  %29 = getelementptr inbounds double, ptr %28, i64 %indvars.iv26
  %30 = load double, ptr %29, align 8
  %31 = load ptr, ptr %3, align 8
  %32 = getelementptr double, ptr %31, i64 %26
  %33 = getelementptr double, ptr %32, i64 %indvars.iv
  store double %30, ptr %33, align 8
  %indvars.iv.next = add nuw nsw i64 %indvars.iv, 1
  %34 = load i32, ptr %18, align 4
  %35 = sext i32 %34 to i64
  %36 = icmp slt i64 %indvars.iv.next, %35
  br i1 %36, label %.lr.ph, label %._crit_edge, !llvm.loop !85

._crit_edge:                                      ; preds = %.lr.ph, %.lr.ph22.split
  %37 = phi i32 [ %24, %.lr.ph22.split ], [ %34, %.lr.ph ]
  %indvars.iv.next27 = add nsw i64 %indvars.iv26, 1
  %lftr.wideiv = trunc i64 %indvars.iv.next27 to i32
  %exitcond.not = icmp eq i32 %23, %lftr.wideiv
  br i1 %exitcond.not, label %._crit_edge23, label %.lr.ph22.split, !llvm.loop !86

._crit_edge23:                                    ; preds = %._crit_edge, %.lr.ph22, %12
  call void @__kmpc_for_static_fini(ptr nonnull @1, i32 %14)
  br label %38

38:                                               ; preds = %._crit_edge23, %4
  ret void
}